; Function Attrs: mustprogress uwtable
define void @_ZN5draco17PointCloudBuilder8FinalizeEb(ptr dead_on_unwind noalias writable writeonly sret(%"class.std::unique_ptr") align 8 captures(none) initializes((0, 8)) %0, ptr noundef nonnull align 8 captures(none) dereferenceable(8) %1, i1 noundef zeroext %2) local_unnamed_addr #4 align 2 {
  br i1 %2, label %4, label %14

4:                                                ; preds = %3
  %5 = load ptr, ptr %1, align 8, !tbaa !9
  %6 = load ptr, ptr %5, align 8, !tbaa !10
  %7 = getelementptr inbounds nuw i8, ptr %6, i64 32
  %8 = load ptr, ptr %7, align 8
  %9 = tail call noundef zeroext i1 %8(ptr noundef nonnull align 8 dereferenceable(164) %5)
  %10 = load ptr, ptr %1, align 8, !tbaa !9
  %11 = load ptr, ptr %10, align 8, !tbaa !10
  %12 = getelementptr inbounds nuw i8, ptr %11, i64 40
  %13 = load ptr, ptr %12, align 8
  tail call void %13(ptr noundef nonnull align 8 dereferenceable(164) %10)
  br label %14

14:                                               ; preds = %4, %3
  %15 = load i64, ptr %1, align 8, !tbaa !9
  store i64 %15, ptr %0, align 8, !tbaa !9
  store ptr null, ptr %1, align 8, !tbaa !9
  ret void
}